target datalayout = "e-m:e-p270:32:32-p271:32:32-p272:64:64-i64:64-i128:128-f80:128-n8:16:32:64-S128"
target triple = "x86_64-pc-linux-gnu"

%struct.bignum_st = type opaque

@.str.9 = private unnamed_addr constant [25 x i8] c"../openssl/test/dhtest.c\00", align 1
@.str.10 = private unnamed_addr constant [14 x i8] c"dh = DH_new()\00", align 1
@.str.18 = private unnamed_addr constant [25 x i8] c"DH_set0_pqg(dh, p, q, g)\00", align 1
@.str.73 = private unnamed_addr constant [37 x i8] c"p = BN_dup(&ossl_bignum_ffdhe2048_p)\00", align 1
@ossl_bignum_ffdhe2048_p = external constant %struct.bignum_st, align 1
@.str.74 = private unnamed_addr constant [37 x i8] c"q = BN_dup(&ossl_bignum_ffdhe2048_q)\00", align 1
@ossl_bignum_ffdhe2048_q = external constant %struct.bignum_st, align 1
@.str.75 = private unnamed_addr constant [33 x i8] c"g = BN_dup(&ossl_bignum_const_2)\00", align 1
@ossl_bignum_const_2 = external constant %struct.bignum_st, align 1
@.str.76 = private unnamed_addr constant [17 x i8] c"sz = DH_size(dh)\00", align 1
@.str.77 = private unnamed_addr constant [2 x i8] c"0\00", align 1
@.str.78 = private unnamed_addr constant [25 x i8] c"buf = OPENSSL_malloc(sz)\00", align 1
@.str.79 = private unnamed_addr constant [15 x i8] c"pub = BN_new()\00", align 1
@.str.80 = private unnamed_addr constant [16 x i8] c"priv = BN_new()\00", align 1
@.str.81 = private unnamed_addr constant [21 x i8] c"BN_set_word(priv, 1)\00", align 1
@.str.82 = private unnamed_addr constant [28 x i8] c"DH_set0_key(dh, NULL, priv)\00", align 1
@.str.83 = private unnamed_addr constant [20 x i8] c"BN_set_word(pub, 1)\00", align 1
@.str.84 = private unnamed_addr constant [34 x i8] c"ossl_dh_compute_key(buf, pub, dh)\00", align 1
@.str.85 = private unnamed_addr constant [28 x i8] c"BN_copy(pub, DH_get0_p(dh))\00", align 1
@.str.86 = private unnamed_addr constant [20 x i8] c"BN_sub_word(pub, 1)\00", align 1
@.str.87 = private unnamed_addr constant [3 x i8] c"sz\00", align 1

; Function Attrs: nounwind uwtable
define internal i32 @dh_computekey_range_test() #0 {
  %1 = alloca i32, align 4
  %2 = alloca i32, align 4
  %3 = alloca ptr, align 8
  %4 = alloca ptr, align 8
  %5 = alloca ptr, align 8
  %6 = alloca ptr, align 8
  %7 = alloca ptr, align 8
  %8 = alloca ptr, align 8
  %9 = alloca ptr, align 8
  call void @llvm.lifetime.start.p0(i64 4, ptr %1) #3
  store i32 0, ptr %1, align 4, !tbaa !15
  call void @llvm.lifetime.start.p0(i64 4, ptr %2) #3
  call void @llvm.lifetime.start.p0(i64 8, ptr %3) #3
  store ptr null, ptr %3, align 8, !tbaa !4
  call void @llvm.lifetime.start.p0(i64 8, ptr %4) #3
  store ptr null, ptr %4, align 8, !tbaa !9
  call void @llvm.lifetime.start.p0(i64 8, ptr %5) #3
  store ptr null, ptr %5, align 8, !tbaa !9
  call void @llvm.lifetime.start.p0(i64 8, ptr %6) #3
  store ptr null, ptr %6, align 8, !tbaa !9
  call void @llvm.lifetime.start.p0(i64 8, ptr %7) #3
  store ptr null, ptr %7, align 8, !tbaa !9
  call void @llvm.lifetime.start.p0(i64 8, ptr %8) #3
  store ptr null, ptr %8, align 8, !tbaa !9
  call void @llvm.lifetime.start.p0(i64 8, ptr %9) #3
  store ptr null, ptr %9, align 8, !tbaa !13
  %10 = call ptr @BN_dup(ptr noundef @ossl_bignum_ffdhe2048_p)
  store ptr %10, ptr %4, align 8, !tbaa !9
  %11 = call i32 @test_ptr(ptr noundef @.str.9, i32 noundef 269, ptr noundef @.str.73, ptr noundef %10)
  %12 = icmp ne i32 %11, 0
  br i1 %12, label %13, label %35

13:                                               ; preds = %0
  %14 = call ptr @BN_dup(ptr noundef @ossl_bignum_ffdhe2048_q)
  store ptr %14, ptr %5, align 8, !tbaa !9
  %15 = call i32 @test_ptr(ptr noundef @.str.9, i32 noundef 270, ptr noundef @.str.74, ptr noundef %14)
  %16 = icmp ne i32 %15, 0
  br i1 %16, label %17, label %35

17:                                               ; preds = %13
  %18 = call ptr @BN_dup(ptr noundef @ossl_bignum_const_2)
  store ptr %18, ptr %6, align 8, !tbaa !9
  %19 = call i32 @test_ptr(ptr noundef @.str.9, i32 noundef 271, ptr noundef @.str.75, ptr noundef %18)
  %20 = icmp ne i32 %19, 0
  br i1 %20, label %21, label %35

21:                                               ; preds = %17
  %22 = call ptr @DH_new()
  store ptr %22, ptr %3, align 8, !tbaa !4
  %23 = call i32 @test_ptr(ptr noundef @.str.9, i32 noundef 272, ptr noundef @.str.10, ptr noundef %22)
  %24 = icmp ne i32 %23, 0
  br i1 %24, label %25, label %35

25:                                               ; preds = %21
  %26 = load ptr, ptr %3, align 8, !tbaa !4
  %27 = load ptr, ptr %4, align 8, !tbaa !9
  %28 = load ptr, ptr %5, align 8, !tbaa !9
  %29 = load ptr, ptr %6, align 8, !tbaa !9
  %30 = call i32 @DH_set0_pqg(ptr noundef %26, ptr noundef %27, ptr noundef %28, ptr noundef %29)
  %31 = icmp ne i32 %30, 0
  %32 = zext i1 %31 to i32
  %33 = call i32 @test_true(ptr noundef @.str.9, i32 noundef 273, ptr noundef @.str.18, i32 noundef %32)
  %34 = icmp ne i32 %33, 0
  br i1 %34, label %36, label %35

35:                                               ; preds = %25, %21, %17, %13, %0
  br label %135

36:                                               ; preds = %25
  store ptr null, ptr %6, align 8, !tbaa !9
  store ptr null, ptr %5, align 8, !tbaa !9
  store ptr null, ptr %4, align 8, !tbaa !9
  %37 = load ptr, ptr %3, align 8, !tbaa !4
  %38 = call i32 @DH_size(ptr noundef %37)
  store i32 %38, ptr %2, align 4, !tbaa !15
  %39 = call i32 @test_int_gt(ptr noundef @.str.9, i32 noundef 277, ptr noundef @.str.76, ptr noundef @.str.77, i32 noundef %38, i32 noundef 0)
  %40 = icmp ne i32 %39, 0
  br i1 %40, label %41, label %55

41:                                               ; preds = %36
  %42 = load i32, ptr %2, align 4, !tbaa !15
  %43 = sext i32 %42 to i64
  %44 = call noalias ptr @CRYPTO_malloc(i64 noundef %43, ptr noundef @.str.9, i32 noundef 278)
  store ptr %44, ptr %9, align 8, !tbaa !13
  %45 = call i32 @test_ptr(ptr noundef @.str.9, i32 noundef 278, ptr noundef @.str.78, ptr noundef %44)
  %46 = icmp ne i32 %45, 0
  br i1 %46, label %47, label %55

47:                                               ; preds = %41
  %48 = call ptr @BN_new()
  store ptr %48, ptr %7, align 8, !tbaa !9
  %49 = call i32 @test_ptr(ptr noundef @.str.9, i32 noundef 279, ptr noundef @.str.79, ptr noundef %48)
  %50 = icmp ne i32 %49, 0
  br i1 %50, label %51, label %55

51:                                               ; preds = %47
  %52 = call ptr @BN_new()
  store ptr %52, ptr %8, align 8, !tbaa !9
  %53 = call i32 @test_ptr(ptr noundef @.str.9, i32 noundef 280, ptr noundef @.str.80, ptr noundef %52)
  %54 = icmp ne i32 %53, 0
  br i1 %54, label %56, label %55

55:                                               ; preds = %51, %47, %41, %36
  br label %135

56:                                               ; preds = %51
  %57 = load ptr, ptr %8, align 8, !tbaa !9
  %58 = call i32 @BN_set_word(ptr noundef %57, i64 noundef 1)
  %59 = icmp ne i32 %58, 0
  %60 = zext i1 %59 to i32
  %61 = call i32 @test_true(ptr noundef @.str.9, i32 noundef 283, ptr noundef @.str.81, i32 noundef %60)
  %62 = icmp ne i32 %61, 0
  br i1 %62, label %63, label %71

63:                                               ; preds = %56
  %64 = load ptr, ptr %3, align 8, !tbaa !4
  %65 = load ptr, ptr %8, align 8, !tbaa !9
  %66 = call i32 @DH_set0_key(ptr noundef %64, ptr noundef null, ptr noundef %65)
  %67 = icmp ne i32 %66, 0
  %68 = zext i1 %67 to i32
  %69 = call i32 @test_true(ptr noundef @.str.9, i32 noundef 284, ptr noundef @.str.82, i32 noundef %68)
  %70 = icmp ne i32 %69, 0
  br i1 %70, label %72, label %71

71:                                               ; preds = %63, %56
  br label %135

72:                                               ; preds = %63
  store ptr null, ptr %8, align 8, !tbaa !9
  %73 = load ptr, ptr %7, align 8, !tbaa !9
  %74 = call i32 @BN_set_word(ptr noundef %73, i64 noundef 1)
  %75 = icmp ne i32 %74, 0
  %76 = zext i1 %75 to i32
  %77 = call i32 @test_true(ptr noundef @.str.9, i32 noundef 287, ptr noundef @.str.83, i32 noundef %76)
  %78 = icmp ne i32 %77, 0
  br i1 %78, label %80, label %79

79:                                               ; preds = %72
  br label %135

80:                                               ; preds = %72
  %81 = load ptr, ptr %9, align 8, !tbaa !13
  %82 = load ptr, ptr %7, align 8, !tbaa !9
  %83 = load ptr, ptr %3, align 8, !tbaa !4
  %84 = call i32 @ossl_dh_compute_key(ptr noundef %81, ptr noundef %82, ptr noundef %83)
  %85 = call i32 @test_int_le(ptr noundef @.str.9, i32 noundef 293, ptr noundef @.str.84, ptr noundef @.str.77, i32 noundef %84, i32 noundef 0)
  %86 = icmp ne i32 %85, 0
  br i1 %86, label %88, label %87

87:                                               ; preds = %80
  br label %135

88:                                               ; preds = %80
  %89 = load ptr, ptr %7, align 8, !tbaa !9
  %90 = load ptr, ptr %3, align 8, !tbaa !4
  %91 = call ptr @DH_get0_p(ptr noundef %90)
  %92 = call ptr @BN_copy(ptr noundef %89, ptr noundef %91)
  %93 = call i32 @test_ptr(ptr noundef @.str.9, i32 noundef 296, ptr noundef @.str.85, ptr noundef %92)
  %94 = icmp ne i32 %93, 0
  br i1 %94, label %95, label %102

95:                                               ; preds = %88
  %96 = load ptr, ptr %9, align 8, !tbaa !13
  %97 = load ptr, ptr %7, align 8, !tbaa !9
  %98 = load ptr, ptr %3, align 8, !tbaa !4
  %99 = call i32 @ossl_dh_compute_key(ptr noundef %96, ptr noundef %97, ptr noundef %98)
  %100 = call i32 @test_int_le(ptr noundef @.str.9, i32 noundef 297, ptr noundef @.str.84, ptr noundef @.str.77, i32 noundef %99, i32 noundef 0)
  %101 = icmp ne i32 %100, 0
  br i1 %101, label %103, label %102

102:                                              ; preds = %95, %88
  br label %135

103:                                              ; preds = %95
  %104 = load ptr, ptr %7, align 8, !tbaa !9
  %105 = call i32 @BN_sub_word(ptr noundef %104, i64 noundef 1)
  %106 = icmp ne i32 %105, 0
  %107 = zext i1 %106 to i32
  %108 = call i32 @test_true(ptr noundef @.str.9, i32 noundef 300, ptr noundef @.str.86, i32 noundef %107)
  %109 = icmp ne i32 %108, 0
  br i1 %109, label %110, label %117

110:                                              ; preds = %103
  %111 = load ptr, ptr %9, align 8, !tbaa !13
  %112 = load ptr, ptr %7, align 8, !tbaa !9
  %113 = load ptr, ptr %3, align 8, !tbaa !4
  %114 = call i32 @ossl_dh_compute_key(ptr noundef %111, ptr noundef %112, ptr noundef %113)
  %115 = call i32 @test_int_le(ptr noundef @.str.9, i32 noundef 301, ptr noundef @.str.84, ptr noundef @.str.77, i32 noundef %114, i32 noundef 0)
  %116 = icmp ne i32 %115, 0
  br i1 %116, label %118, label %117

117:                                              ; preds = %110, %103
  br label %135

118:                                              ; preds = %110
  %119 = load ptr, ptr %7, align 8, !tbaa !9
  %120 = call i32 @BN_sub_word(ptr noundef %119, i64 noundef 1)
  %121 = icmp ne i32 %120, 0
  %122 = zext i1 %121 to i32
  %123 = call i32 @test_true(ptr noundef @.str.9, i32 noundef 304, ptr noundef @.str.86, i32 noundef %122)
  %124 = icmp ne i32 %123, 0
  br i1 %124, label %125, label %133

125:                                              ; preds = %118
  %126 = load ptr, ptr %9, align 8, !tbaa !13
  %127 = load ptr, ptr %7, align 8, !tbaa !9
  %128 = load ptr, ptr %3, align 8, !tbaa !4
  %129 = call i32 @ossl_dh_compute_key(ptr noundef %126, ptr noundef %127, ptr noundef %128)
  %130 = load i32, ptr %2, align 4, !tbaa !15
  %131 = call i32 @test_int_eq(ptr noundef @.str.9, i32 noundef 305, ptr noundef @.str.84, ptr noundef @.str.87, i32 noundef %129, i32 noundef %130)
  %132 = icmp ne i32 %131, 0
  br i1 %132, label %134, label %133

133:                                              ; preds = %125, %118
  br label %135

134:                                              ; preds = %125
  store i32 1, ptr %1, align 4, !tbaa !15
  br label %135

135:                                              ; preds = %134, %133, %117, %102, %87, %79, %71, %55, %35
  %136 = load ptr, ptr %9, align 8, !tbaa !13
  call void @CRYPTO_free(ptr noundef %136, ptr noundef @.str.9, i32 noundef 310)
  %137 = load ptr, ptr %8, align 8, !tbaa !9
  call void @BN_free(ptr noundef %137)
  %138 = load ptr, ptr %7, align 8, !tbaa !9
  call void @BN_free(ptr noundef %138)
  %139 = load ptr, ptr %6, align 8, !tbaa !9
  call void @BN_free(ptr noundef %139)
  %140 = load ptr, ptr %5, align 8, !tbaa !9
  call void @BN_free(ptr noundef %140)
  %141 = load ptr, ptr %4, align 8, !tbaa !9
  call void @BN_free(ptr noundef %141)
  %142 = load ptr, ptr %3, align 8, !tbaa !4
  call void @DH_free(ptr noundef %142)
  %143 = load i32, ptr %1, align 4, !tbaa !15
  call void @llvm.lifetime.end.p0(i64 8, ptr %9) #3
  call void @llvm.lifetime.end.p0(i64 8, ptr %8) #3
  call void @llvm.lifetime.end.p0(i64 8, ptr %7) #3
  call void @llvm.lifetime.end.p0(i64 8, ptr %6) #3
  call void @llvm.lifetime.end.p0(i64 8, ptr %5) #3
  call void @llvm.lifetime.end.p0(i64 8, ptr %4) #3
  call void @llvm.lifetime.end.p0(i64 8, ptr %3) #3
  call void @llvm.lifetime.end.p0(i64 4, ptr %2) #3
  call void @llvm.lifetime.end.p0(i64 4, ptr %1) #3
  ret i32 %143
}