; Function Attrs: nounwind uwtable
define internal range(i32 0, 2) i32 @dh_computekey_range_test() #0 {
  %1 = tail call ptr @BN_dup(ptr noundef nonnull @ossl_bignum_ffdhe2048_p) #4
  %2 = tail call i32 @test_ptr(ptr noundef nonnull @.str.9, i32 noundef 269, ptr noundef nonnull @.str.73, ptr noundef %1) #4
  %.not = icmp eq i32 %2, 0
  br i1 %.not, label %71, label %3

3:                                                ; preds = %0
  %4 = tail call ptr @BN_dup(ptr noundef nonnull @ossl_bignum_ffdhe2048_q) #4
  %5 = tail call i32 @test_ptr(ptr noundef nonnull @.str.9, i32 noundef 270, ptr noundef nonnull @.str.74, ptr noundef %4) #4
  %.not41 = icmp eq i32 %5, 0
  br i1 %.not41, label %71, label %6

6:                                                ; preds = %3
  %7 = tail call ptr @BN_dup(ptr noundef nonnull @ossl_bignum_const_2) #4
  %8 = tail call i32 @test_ptr(ptr noundef nonnull @.str.9, i32 noundef 271, ptr noundef nonnull @.str.75, ptr noundef %7) #4
  %.not42 = icmp eq i32 %8, 0
  br i1 %.not42, label %71, label %9

9:                                                ; preds = %6
  %10 = tail call ptr @DH_new() #4
  %11 = tail call i32 @test_ptr(ptr noundef nonnull @.str.9, i32 noundef 272, ptr noundef nonnull @.str.10, ptr noundef %10) #4
  %.not43 = icmp eq i32 %11, 0
  br i1 %.not43, label %71, label %12

12:                                               ; preds = %9
  %13 = tail call i32 @DH_set0_pqg(ptr noundef %10, ptr noundef %1, ptr noundef %4, ptr noundef %7) #4
  %14 = icmp ne i32 %13, 0
  %15 = zext i1 %14 to i32
  %16 = tail call i32 @test_true(ptr noundef nonnull @.str.9, i32 noundef 273, ptr noundef nonnull @.str.18, i32 noundef %15) #4
  %.not44 = icmp eq i32 %16, 0
  br i1 %.not44, label %71, label %17

17:                                               ; preds = %12
  %18 = tail call i32 @DH_size(ptr noundef %10) #4
  %19 = tail call i32 @test_int_gt(ptr noundef nonnull @.str.9, i32 noundef 277, ptr noundef nonnull @.str.76, ptr noundef nonnull @.str.77, i32 noundef %18, i32 noundef 0) #4
  %.not45 = icmp eq i32 %19, 0
  br i1 %.not45, label %71, label %20

20:                                               ; preds = %17
  %21 = sext i32 %18 to i64
  %22 = tail call noalias ptr @CRYPTO_malloc(i64 noundef %21, ptr noundef nonnull @.str.9, i32 noundef 278) #4
  %23 = tail call i32 @test_ptr(ptr noundef nonnull @.str.9, i32 noundef 278, ptr noundef nonnull @.str.78, ptr noundef %22) #4
  %.not46 = icmp eq i32 %23, 0
  br i1 %.not46, label %71, label %24

24:                                               ; preds = %20
  %25 = tail call ptr @BN_new() #4
  %26 = tail call i32 @test_ptr(ptr noundef nonnull @.str.9, i32 noundef 279, ptr noundef nonnull @.str.79, ptr noundef %25) #4
  %.not47 = icmp eq i32 %26, 0
  br i1 %.not47, label %71, label %27

27:                                               ; preds = %24
  %28 = tail call ptr @BN_new() #4
  %29 = tail call i32 @test_ptr(ptr noundef nonnull @.str.9, i32 noundef 280, ptr noundef nonnull @.str.80, ptr noundef %28) #4
  %.not48 = icmp eq i32 %29, 0
  br i1 %.not48, label %71, label %30

30:                                               ; preds = %27
  %31 = tail call i32 @BN_set_word(ptr noundef %28, i64 noundef 1) #4
  %32 = icmp ne i32 %31, 0
  %33 = zext i1 %32 to i32
  %34 = tail call i32 @test_true(ptr noundef nonnull @.str.9, i32 noundef 283, ptr noundef nonnull @.str.81, i32 noundef %33) #4
  %.not49 = icmp eq i32 %34, 0
  br i1 %.not49, label %71, label %35

35:                                               ; preds = %30
  %36 = tail call i32 @DH_set0_key(ptr noundef %10, ptr noundef null, ptr noundef %28) #4
  %37 = icmp ne i32 %36, 0
  %38 = zext i1 %37 to i32
  %39 = tail call i32 @test_true(ptr noundef nonnull @.str.9, i32 noundef 284, ptr noundef nonnull @.str.82, i32 noundef %38) #4
  %.not50 = icmp eq i32 %39, 0
  br i1 %.not50, label %71, label %40

40:                                               ; preds = %35
  %41 = tail call i32 @BN_set_word(ptr noundef %25, i64 noundef 1) #4
  %42 = icmp ne i32 %41, 0
  %43 = zext i1 %42 to i32
  %44 = tail call i32 @test_true(ptr noundef nonnull @.str.9, i32 noundef 287, ptr noundef nonnull @.str.83, i32 noundef %43) #4
  %.not51 = icmp eq i32 %44, 0
  br i1 %.not51, label %71, label %45

45:                                               ; preds = %40
  %46 = tail call i32 @ossl_dh_compute_key(ptr noundef %22, ptr noundef %25, ptr noundef %10) #4
  %47 = tail call i32 @test_int_le(ptr noundef nonnull @.str.9, i32 noundef 293, ptr noundef nonnull @.str.84, ptr noundef nonnull @.str.77, i32 noundef %46, i32 noundef 0) #4
  %.not52 = icmp eq i32 %47, 0
  br i1 %.not52, label %71, label %48

48:                                               ; preds = %45
  %49 = tail call ptr @DH_get0_p(ptr noundef %10) #4
  %50 = tail call ptr @BN_copy(ptr noundef %25, ptr noundef %49) #4
  %51 = tail call i32 @test_ptr(ptr noundef nonnull @.str.9, i32 noundef 296, ptr noundef nonnull @.str.85, ptr noundef %50) #4
  %.not53 = icmp eq i32 %51, 0
  br i1 %.not53, label %71, label %52

52:                                               ; preds = %48
  %53 = tail call i32 @ossl_dh_compute_key(ptr noundef %22, ptr noundef %25, ptr noundef %10) #4
  %54 = tail call i32 @test_int_le(ptr noundef nonnull @.str.9, i32 noundef 297, ptr noundef nonnull @.str.84, ptr noundef nonnull @.str.77, i32 noundef %53, i32 noundef 0) #4
  %.not54 = icmp eq i32 %54, 0
  br i1 %.not54, label %71, label %55

55:                                               ; preds = %52
  %56 = tail call i32 @BN_sub_word(ptr noundef %25, i64 noundef 1) #4
  %57 = icmp ne i32 %56, 0
  %58 = zext i1 %57 to i32
  %59 = tail call i32 @test_true(ptr noundef nonnull @.str.9, i32 noundef 300, ptr noundef nonnull @.str.86, i32 noundef %58) #4
  %.not55 = icmp eq i32 %59, 0
  br i1 %.not55, label %71, label %60

60:                                               ; preds = %55
  %61 = tail call i32 @ossl_dh_compute_key(ptr noundef %22, ptr noundef %25, ptr noundef %10) #4
  %62 = tail call i32 @test_int_le(ptr noundef nonnull @.str.9, i32 noundef 301, ptr noundef nonnull @.str.84, ptr noundef nonnull @.str.77, i32 noundef %61, i32 noundef 0) #4
  %.not56 = icmp eq i32 %62, 0
  br i1 %.not56, label %71, label %63

63:                                               ; preds = %60
  %64 = tail call i32 @BN_sub_word(ptr noundef %25, i64 noundef 1) #4
  %65 = icmp ne i32 %64, 0
  %66 = zext i1 %65 to i32
  %67 = tail call i32 @test_true(ptr noundef nonnull @.str.9, i32 noundef 304, ptr noundef nonnull @.str.86, i32 noundef %66) #4
  %.not57 = icmp eq i32 %67, 0
  br i1 %.not57, label %71, label %68

68:                                               ; preds = %63
  %69 = tail call i32 @ossl_dh_compute_key(ptr noundef %22, ptr noundef %25, ptr noundef %10) #4
  %70 = tail call i32 @test_int_eq(ptr noundef nonnull @.str.9, i32 noundef 305, ptr noundef nonnull @.str.84, ptr noundef nonnull @.str.87, i32 noundef %69, i32 noundef %18) #4
  %.not58 = icmp ne i32 %70, 0
  %spec.select = zext i1 %.not58 to i32
  br label %71

71:                                               ; preds = %68, %63, %55, %60, %48, %52, %45, %40, %30, %35, %17, %20, %24, %27, %0, %3, %6, %9, %12
  %.040 = phi i32 [ 0, %63 ], [ 0, %60 ], [ 0, %55 ], [ 0, %52 ], [ 0, %48 ], [ 0, %45 ], [ 0, %40 ], [ 0, %35 ], [ 0, %30 ], [ 0, %27 ], [ 0, %24 ], [ 0, %20 ], [ 0, %17 ], [ 0, %12 ], [ 0, %9 ], [ 0, %6 ], [ 0, %3 ], [ 0, %0 ], [ %spec.select, %68 ]
  %.039 = phi ptr [ %10, %63 ], [ %10, %60 ], [ %10, %55 ], [ %10, %52 ], [ %10, %48 ], [ %10, %45 ], [ %10, %40 ], [ %10, %35 ], [ %10, %30 ], [ %10, %27 ], [ %10, %24 ], [ %10, %20 ], [ %10, %17 ], [ %10, %12 ], [ %10, %9 ], [ null, %6 ], [ null, %3 ], [ null, %0 ], [ %10, %68 ]
  %.038 = phi ptr [ null, %63 ], [ null, %60 ], [ null, %55 ], [ null, %52 ], [ null, %48 ], [ null, %45 ], [ null, %40 ], [ null, %35 ], [ null, %30 ], [ null, %27 ], [ null, %24 ], [ null, %20 ], [ null, %17 ], [ %1, %12 ], [ %1, %9 ], [ %1, %6 ], [ %1, %3 ], [ %1, %0 ], [ null, %68 ]
  %.037 = phi ptr [ null, %63 ], [ null, %60 ], [ null, %55 ], [ null, %52 ], [ null, %48 ], [ null, %45 ], [ null, %40 ], [ null, %35 ], [ null, %30 ], [ null, %27 ], [ null, %24 ], [ null, %20 ], [ null, %17 ], [ %4, %12 ], [ %4, %9 ], [ %4, %6 ], [ %4, %3 ], [ null, %0 ], [ null, %68 ]
  %.036 = phi ptr [ null, %63 ], [ null, %60 ], [ null, %55 ], [ null, %52 ], [ null, %48 ], [ null, %45 ], [ null, %40 ], [ null, %35 ], [ null, %30 ], [ null, %27 ], [ null, %24 ], [ null, %20 ], [ null, %17 ], [ %7, %12 ], [ %7, %9 ], [ %7, %6 ], [ null, %3 ], [ null, %0 ], [ null, %68 ]
  %.035 = phi ptr [ %25, %63 ], [ %25, %60 ], [ %25, %55 ], [ %25, %52 ], [ %25, %48 ], [ %25, %45 ], [ %25, %40 ], [ %25, %35 ], [ %25, %30 ], [ %25, %27 ], [ %25, %24 ], [ null, %20 ], [ null, %17 ], [ null, %12 ], [ null, %9 ], [ null, %6 ], [ null, %3 ], [ null, %0 ], [ %25, %68 ]
  %.034 = phi ptr [ null, %63 ], [ null, %60 ], [ null, %55 ], [ null, %52 ], [ null, %48 ], [ null, %45 ], [ null, %40 ], [ %28, %35 ], [ %28, %30 ], [ %28, %27 ], [ null, %24 ], [ null, %20 ], [ null, %17 ], [ null, %12 ], [ null, %9 ], [ null, %6 ], [ null, %3 ], [ null, %0 ], [ null, %68 ]
  %.0 = phi ptr [ %22, %63 ], [ %22, %60 ], [ %22, %55 ], [ %22, %52 ], [ %22, %48 ], [ %22, %45 ], [ %22, %40 ], [ %22, %35 ], [ %22, %30 ], [ %22, %27 ], [ %22, %24 ], [ %22, %20 ], [ null, %17 ], [ null, %12 ], [ null, %9 ], [ null, %6 ], [ null, %3 ], [ null, %0 ], [ %22, %68 ]
  tail call void @CRYPTO_free(ptr noundef %.0, ptr noundef nonnull @.str.9, i32 noundef 310) #4
  tail call void @BN_free(ptr noundef %.034) #4
  tail call void @BN_free(ptr noundef %.035) #4
  tail call void @BN_free(ptr noundef %.036) #4
  tail call void @BN_free(ptr noundef %.037) #4
  tail call void @BN_free(ptr noundef %.038) #4
  tail call void @DH_free(ptr noundef %.039) #4
  ret i32 %.040
}